; Function Attrs: nounwind uwtable
define ptr @ossl_stored_namemap_new(ptr noundef %0) local_unnamed_addr #0 {
  %2 = tail call ptr @ossl_namemap_new(ptr noundef %0)
  %.not = icmp eq ptr %2, null
  br i1 %.not, label %6, label %3

3:                                                ; preds = %1
  %4 = load i8, ptr %2, align 8
  %5 = or i8 %4, 1
  store i8 %5, ptr %2, align 8
  br label %6

6:                                                ; preds = %3, %1
  ret ptr %2
}